target datalayout = "e-m:e-p270:32:32-p271:32:32-p272:64:64-i64:64-i128:128-f80:128-n8:16:32:64-S128"
target triple = "x86_64-pc-linux-gnu"

%struct.FormData_pg_enum = type { i32, i32, float, %struct.nameData }
%struct.nameData = type { [64 x i8] }
%struct.HeapTupleData = type { i32, %struct.ItemPointerData, i32, ptr }
%struct.ItemPointerData = type { %struct.BlockIdData, i16 }
%struct.BlockIdData = type { i16, i16 }
%struct.HeapTupleHeaderData = type { %union.anon, %struct.ItemPointerData, i16, i16, i8, [0 x i8] }
%union.anon = type { %struct.HeapTupleFields }
%struct.HeapTupleFields = type { i32, i32, %union.anon.0 }
%union.anon.0 = type { i32 }

@.str.1 = private unnamed_addr constant [7 x i8] c"enum.c\00", align 1
@.str.5 = private unnamed_addr constant [45 x i8] c"unsafe use of new value \22%s\22 of enum type %s\00", align 1
@.str.6 = private unnamed_addr constant [59 x i8] c"New enum values must be committed before they can be used.\00", align 1
@__func__.check_safe_enum_use = private unnamed_addr constant [20 x i8] c"check_safe_enum_use\00", align 1

; Function Attrs: inlinehint nounwind uwtable
define internal i32 @HeapTupleHeaderGetRawXmin(ptr noundef %0) #2 {
  %2 = alloca ptr, align 8
  store ptr %0, ptr %2, align 8
  %3 = load ptr, ptr %2, align 8
  %4 = getelementptr inbounds nuw %struct.HeapTupleHeaderData, ptr %3, i32 0, i32 0
  %5 = getelementptr inbounds nuw %struct.HeapTupleFields, ptr %4, i32 0, i32 0
  %6 = load i32, ptr %5, align 4
  ret i32 %6
}

; Function Attrs: inlinehint nounwind uwtable
define internal zeroext i1 @HeapTupleHeaderXminFrozen(ptr noundef %0) #2 {
  %2 = alloca ptr, align 8
  store ptr %0, ptr %2, align 8
  %3 = load ptr, ptr %2, align 8
  %4 = getelementptr inbounds nuw %struct.HeapTupleHeaderData, ptr %3, i32 0, i32 3
  %5 = load i16, ptr %4, align 4
  %6 = zext i16 %5 to i32
  %7 = and i32 %6, 768
  %8 = icmp eq i32 %7, 768
  ret i1 %8
}

; Function Attrs: inlinehint nounwind uwtable
define internal i32 @HeapTupleHeaderGetXmin(ptr noundef %0) #2 {
  %2 = alloca ptr, align 8
  store ptr %0, ptr %2, align 8
  %3 = load ptr, ptr %2, align 8
  %4 = call zeroext i1 @HeapTupleHeaderXminFrozen(ptr noundef %3)
  br i1 %4, label %5, label %6

5:                                                ; preds = %1
  br label %9

6:                                                ; preds = %1
  %7 = load ptr, ptr %2, align 8
  %8 = call i32 @HeapTupleHeaderGetRawXmin(ptr noundef %7)
  br label %9

9:                                                ; preds = %6, %5
  %10 = phi i32 [ 2, %5 ], [ %8, %6 ]
  ret i32 %10
}

; Function Attrs: inlinehint nounwind uwtable
define internal zeroext i1 @HeapTupleHeaderXminCommitted(ptr noundef %0) #2 {
  %2 = alloca ptr, align 8
  store ptr %0, ptr %2, align 8
  %3 = load ptr, ptr %2, align 8
  %4 = getelementptr inbounds nuw %struct.HeapTupleHeaderData, ptr %3, i32 0, i32 3
  %5 = load i16, ptr %4, align 4
  %6 = zext i16 %5 to i32
  %7 = and i32 %6, 256
  %8 = icmp ne i32 %7, 0
  ret i1 %8
}

; Function Attrs: inlinehint nounwind uwtable
define internal ptr @GETSTRUCT(ptr noundef %0) #2 {
  %2 = alloca ptr, align 8
  store ptr %0, ptr %2, align 8
  %3 = load ptr, ptr %2, align 8
  %4 = getelementptr inbounds nuw %struct.HeapTupleData, ptr %3, i32 0, i32 3
  %5 = load ptr, ptr %4, align 8
  %6 = load ptr, ptr %2, align 8
  %7 = getelementptr inbounds nuw %struct.HeapTupleData, ptr %6, i32 0, i32 3
  %8 = load ptr, ptr %7, align 8
  %9 = getelementptr inbounds nuw %struct.HeapTupleHeaderData, ptr %8, i32 0, i32 4
  %10 = load i8, ptr %9, align 2
  %11 = zext i8 %10 to i32
  %12 = sext i32 %11 to i64
  %13 = getelementptr inbounds i8, ptr %5, i64 %12
  ret ptr %13
}

; Function Attrs: nounwind uwtable
define internal void @check_safe_enum_use(ptr noundef %0) #0 {
  %2 = alloca ptr, align 8
  %3 = alloca i32, align 4
  %4 = alloca ptr, align 8
  %5 = alloca i32, align 4
  store ptr %0, ptr %2, align 8
  call void @llvm.lifetime.start.p0(i64 4, ptr %3) #6
  call void @llvm.lifetime.start.p0(i64 8, ptr %4) #6
  %6 = load ptr, ptr %2, align 8
  %7 = call ptr @GETSTRUCT(ptr noundef %6)
  store ptr %7, ptr %4, align 8
  %8 = load ptr, ptr %2, align 8
  %9 = getelementptr inbounds nuw %struct.HeapTupleData, ptr %8, i32 0, i32 3
  %10 = load ptr, ptr %9, align 8
  %11 = call zeroext i1 @HeapTupleHeaderXminCommitted(ptr noundef %10)
  br i1 %11, label %12, label %13

12:                                               ; preds = %1
  store i32 1, ptr %5, align 4
  br label %51

13:                                               ; preds = %1
  %14 = load ptr, ptr %2, align 8
  %15 = getelementptr inbounds nuw %struct.HeapTupleData, ptr %14, i32 0, i32 3
  %16 = load ptr, ptr %15, align 8
  %17 = call i32 @HeapTupleHeaderGetXmin(ptr noundef %16)
  store i32 %17, ptr %3, align 4
  %18 = load i32, ptr %3, align 4
  %19 = call zeroext i1 @TransactionIdIsInProgress(i32 noundef %18)
  br i1 %19, label %24, label %20

20:                                               ; preds = %13
  %21 = load i32, ptr %3, align 4
  %22 = call zeroext i1 @TransactionIdDidCommit(i32 noundef %21)
  br i1 %22, label %23, label %24

23:                                               ; preds = %20
  store i32 1, ptr %5, align 4
  br label %51

24:                                               ; preds = %20, %13
  %25 = load ptr, ptr %4, align 8
  %26 = getelementptr inbounds nuw %struct.FormData_pg_enum, ptr %25, i32 0, i32 0
  %27 = load i32, ptr %26, align 4
  %28 = call zeroext i1 @EnumUncommitted(i32 noundef %27)
  br i1 %28, label %30, label %29

29:                                               ; preds = %24
  store i32 1, ptr %5, align 4
  br label %51

30:                                               ; preds = %24
  br label %31

31:                                               ; preds = %30
  br i1 true, label %32, label %34

32:                                               ; preds = %31
  %33 = call zeroext i1 @errstart_cold(i32 noundef 21, ptr noundef null) #8
  br i1 %33, label %36, label %48

34:                                               ; preds = %31
  %35 = call zeroext i1 @errstart(i32 noundef 21, ptr noundef null)
  br i1 %35, label %36, label %48

36:                                               ; preds = %34, %32
  %37 = call i32 @errcode(i32 noundef 67240261)
  %38 = load ptr, ptr %4, align 8
  %39 = getelementptr inbounds nuw %struct.FormData_pg_enum, ptr %38, i32 0, i32 3
  %40 = getelementptr inbounds nuw %struct.nameData, ptr %39, i32 0, i32 0
  %41 = getelementptr inbounds [64 x i8], ptr %40, i64 0, i64 0
  %42 = load ptr, ptr %4, align 8
  %43 = getelementptr inbounds nuw %struct.FormData_pg_enum, ptr %42, i32 0, i32 1
  %44 = load i32, ptr %43, align 4
  %45 = call ptr @format_type_be(i32 noundef %44)
  %46 = call i32 (ptr, ...) @errmsg(ptr noundef @.str.5, ptr noundef %41, ptr noundef %45)
  %47 = call i32 (ptr, ...) @errhint(ptr noundef @.str.6)
  call void @errfinish(ptr noundef @.str.1, i32 noundef 102, ptr noundef @__func__.check_safe_enum_use)
  br label %48

48:                                               ; preds = %36, %34, %32
  unreachable

49:                                               ; No predecessors!
  br label %50

50:                                               ; preds = %49
  store i32 0, ptr %5, align 4
  br label %51

51:                                               ; preds = %50, %29, %23, %12
  call void @llvm.lifetime.end.p0(i64 8, ptr %4) #6
  call void @llvm.lifetime.end.p0(i64 4, ptr %3) #6
  %52 = load i32, ptr %5, align 4
  switch i32 %52, label %54 [
    i32 0, label %53
    i32 1, label %53
  ]

53:                                               ; preds = %51, %51
  ret void

54:                                               ; preds = %51
  unreachable
}