; Function Attrs: nounwind uwtable
define internal fastcc void @check_safe_enum_use(ptr %.16.val) unnamed_addr #0 {
  %1 = getelementptr inbounds nuw i8, ptr %.16.val, i64 22
  %2 = load i8, ptr %1, align 2
  %3 = zext i8 %2 to i64
  %4 = getelementptr inbounds nuw i8, ptr %.16.val, i64 %3
  %5 = getelementptr i8, ptr %.16.val, i64 20
  %.val7 = load i16, ptr %5, align 4
  %6 = and i16 %.val7, 256
  %.not = icmp eq i16 %6, 0
  br i1 %.not, label %HeapTupleHeaderGetXmin.exit, label %22

HeapTupleHeaderGetXmin.exit:                      ; preds = %0
  %.val2.i = load i32, ptr %.16.val, align 4
  %7 = tail call zeroext i1 @TransactionIdIsInProgress(i32 noundef %.val2.i) #8
  br i1 %7, label %10, label %8

8:                                                ; preds = %HeapTupleHeaderGetXmin.exit
  %9 = tail call zeroext i1 @TransactionIdDidCommit(i32 noundef %.val2.i) #8
  br i1 %9, label %22, label %10

10:                                               ; preds = %8, %HeapTupleHeaderGetXmin.exit
  %11 = load i32, ptr %4, align 4
  %12 = tail call zeroext i1 @EnumUncommitted(i32 noundef %11) #8
  br i1 %12, label %13, label %22

13:                                               ; preds = %10
  %14 = tail call zeroext i1 @errstart_cold(i32 noundef 21, ptr noundef null) #9
  tail call void @llvm.assume(i1 %14)
  %15 = tail call i32 @errcode(i32 noundef 67240261) #8
  %16 = getelementptr inbounds nuw i8, ptr %4, i64 12
  %17 = getelementptr inbounds nuw i8, ptr %4, i64 4
  %18 = load i32, ptr %17, align 4
  %19 = tail call ptr @format_type_be(i32 noundef %18) #8
  %20 = tail call i32 (ptr, ...) @errmsg(ptr noundef nonnull @.str.5, ptr noundef nonnull %16, ptr noundef %19) #8
  %21 = tail call i32 (ptr, ...) @errhint(ptr noundef nonnull @.str.6) #8
  tail call void @errfinish(ptr noundef nonnull @.str.1, i32 noundef 102, ptr noundef nonnull @__func__.check_safe_enum_use) #8
  unreachable

22:                                               ; preds = %10, %8, %0
  ret void
}